target datalayout = "e-m:e-p270:32:32-p271:32:32-p272:64:64-i64:64-i128:128-f80:128-n8:16:32:64-S128"
target triple = "x86_64-unknown-linux-gnu"

%class.btRotationalLimitMotor2 = type { float, float, float, float, float, float, float, i8, float, float, i8, float, i8, float, i8, float, i8, float, float, float, float, i32 }

; Function Attrs: mustprogress nounwind uwtable
define dso_local void @_ZN23btRotationalLimitMotor214testLimitValueEf(ptr noundef nonnull align 4 dereferenceable(88) %this, float noundef %test_value) #1 align 2 {
entry:
  %this.addr = alloca ptr, align 8
  %test_value.addr = alloca float, align 4
  store ptr %this, ptr %this.addr, align 8
  store float %test_value, ptr %test_value.addr, align 4
  %this1 = load ptr, ptr %this.addr, align 8
  %m_loLimit = getelementptr inbounds %class.btRotationalLimitMotor2, ptr %this1, i32 0, i32 0
  %0 = load float, ptr %m_loLimit, align 4
  %m_hiLimit = getelementptr inbounds %class.btRotationalLimitMotor2, ptr %this1, i32 0, i32 1
  %1 = load float, ptr %m_hiLimit, align 4
  %cmp = fcmp ogt float %0, %1
  br i1 %cmp, label %if.then, label %if.else

if.then:                                          ; preds = %entry
  %m_currentLimit = getelementptr inbounds %class.btRotationalLimitMotor2, ptr %this1, i32 0, i32 21
  store i32 0, ptr %m_currentLimit, align 4
  %m_currentLimitError = getelementptr inbounds %class.btRotationalLimitMotor2, ptr %this1, i32 0, i32 18
  store float 0.000000e+00, ptr %m_currentLimitError, align 4
  br label %if.end16

if.else:                                          ; preds = %entry
  %m_loLimit2 = getelementptr inbounds %class.btRotationalLimitMotor2, ptr %this1, i32 0, i32 0
  %2 = load float, ptr %m_loLimit2, align 4
  %m_hiLimit3 = getelementptr inbounds %class.btRotationalLimitMotor2, ptr %this1, i32 0, i32 1
  %3 = load float, ptr %m_hiLimit3, align 4
  %cmp4 = fcmp oeq float %2, %3
  br i1 %cmp4, label %if.then5, label %if.else9

if.then5:                                         ; preds = %if.else
  %4 = load float, ptr %test_value.addr, align 4
  %m_loLimit6 = getelementptr inbounds %class.btRotationalLimitMotor2, ptr %this1, i32 0, i32 0
  %5 = load float, ptr %m_loLimit6, align 4
  %sub = fsub float %4, %5
  %m_currentLimitError7 = getelementptr inbounds %class.btRotationalLimitMotor2, ptr %this1, i32 0, i32 18
  store float %sub, ptr %m_currentLimitError7, align 4
  %m_currentLimit8 = getelementptr inbounds %class.btRotationalLimitMotor2, ptr %this1, i32 0, i32 21
  store i32 3, ptr %m_currentLimit8, align 4
  br label %if.end

if.else9:                                         ; preds = %if.else
  %6 = load float, ptr %test_value.addr, align 4
  %m_loLimit10 = getelementptr inbounds %class.btRotationalLimitMotor2, ptr %this1, i32 0, i32 0
  %7 = load float, ptr %m_loLimit10, align 4
  %sub11 = fsub float %6, %7
  %m_currentLimitError12 = getelementptr inbounds %class.btRotationalLimitMotor2, ptr %this1, i32 0, i32 18
  store float %sub11, ptr %m_currentLimitError12, align 4
  %8 = load float, ptr %test_value.addr, align 4
  %m_hiLimit13 = getelementptr inbounds %class.btRotationalLimitMotor2, ptr %this1, i32 0, i32 1
  %9 = load float, ptr %m_hiLimit13, align 4
  %sub14 = fsub float %8, %9
  %m_currentLimitErrorHi = getelementptr inbounds %class.btRotationalLimitMotor2, ptr %this1, i32 0, i32 19
  store float %sub14, ptr %m_currentLimitErrorHi, align 4
  %m_currentLimit15 = getelementptr inbounds %class.btRotationalLimitMotor2, ptr %this1, i32 0, i32 21
  store i32 4, ptr %m_currentLimit15, align 4
  br label %if.end

if.end:                                           ; preds = %if.else9, %if.then5
  br label %if.end16

if.end16:                                         ; preds = %if.end, %if.then
  ret void
}