; Function Attrs: mustprogress nofree norecurse nosync nounwind willreturn memory(argmem: readwrite) uwtable
define dso_local void @_ZN23btRotationalLimitMotor214testLimitValueEf(ptr nocapture noundef nonnull align 4 dereferenceable(88) %this, float noundef %test_value) local_unnamed_addr #11 align 2 {
entry:
  %0 = load float, ptr %this, align 4
  %m_hiLimit = getelementptr inbounds i8, ptr %this, i64 4
  %1 = load float, ptr %m_hiLimit, align 4
  %cmp = fcmp ogt float %0, %1
  %m_currentLimitError = getelementptr inbounds i8, ptr %this, i64 72
  br i1 %cmp, label %if.then, label %if.else

if.then:                                          ; preds = %entry
  %m_currentLimit = getelementptr inbounds i8, ptr %this, i64 84
  store i32 0, ptr %m_currentLimit, align 4
  store float 0.000000e+00, ptr %m_currentLimitError, align 4
  br label %if.end16

if.else:                                          ; preds = %entry
  %cmp4 = fcmp oeq float %0, %1
  %sub = fsub float %test_value, %0
  store float %sub, ptr %m_currentLimitError, align 4
  br i1 %cmp4, label %if.then5, label %if.else9

if.then5:                                         ; preds = %if.else
  %m_currentLimit8 = getelementptr inbounds i8, ptr %this, i64 84
  store i32 3, ptr %m_currentLimit8, align 4
  br label %if.end16

if.else9:                                         ; preds = %if.else
  %sub14 = fsub float %test_value, %1
  %m_currentLimitErrorHi = getelementptr inbounds i8, ptr %this, i64 76
  store float %sub14, ptr %m_currentLimitErrorHi, align 4
  %m_currentLimit15 = getelementptr inbounds i8, ptr %this, i64 84
  store i32 4, ptr %m_currentLimit15, align 4
  br label %if.end16

if.end16:                                         ; preds = %if.then5, %if.else9, %if.then
  ret void
}